; ModuleID = '43/889.c'
source_filename = "43/889.c"
target datalayout = "e-m:e-p270:32:32-p271:32:32-p272:64:64-i64:64-f80:128-n8:16:32:64-S128"
target triple = "x86_64-pc-linux-gnu"

@.str = private unnamed_addr constant [3 x i8] c"%d\00", align 1
@.str.1 = private unnamed_addr constant [7 x i8] c"%d %d\0A\00", align 1

; Function Attrs: noinline nounwind uwtable
define dso_local i32 @main() #0 {
  %1 = alloca i32, align 4
  %2 = alloca i32, align 4
  %3 = alloca i32, align 4
  %4 = alloca i32, align 4
  %5 = alloca [10000 x i32], align 16
  %6 = alloca i32, align 4
  store i32 0, i32* %1, align 4
  store i32 0, i32* %6, align 4
  %7 = call i32 (i8*, ...) @__isoc99_scanf(i8* getelementptr inbounds ([3 x i8], [3 x i8]* @.str, i64 0, i64 0), i32* %2)
  store i32 3, i32* %3, align 4
  br label %8

8:                                                ; preds = %39, %0
  %9 = load i32, i32* %3, align 4
  %10 = load i32, i32* %2, align 4
  %11 = icmp sle i32 %9, %10
  br i1 %11, label %12, label %42

12:                                               ; preds = %8
  store i32 2, i32* %4, align 4
  br label %13

13:                                               ; preds = %24, %12
  %14 = load i32, i32* %4, align 4
  %15 = load i32, i32* %3, align 4
  %16 = icmp slt i32 %14, %15
  br i1 %16, label %17, label %27

17:                                               ; preds = %13
  %18 = load i32, i32* %3, align 4
  %19 = load i32, i32* %4, align 4
  %20 = srem i32 %18, %19
  %21 = icmp eq i32 %20, 0
  br i1 %21, label %22, label %23

22:                                               ; preds = %17
  br label %27

23:                                               ; preds = %17
  br label %24

24:                                               ; preds = %23
  %25 = load i32, i32* %4, align 4
  %26 = add nsw i32 %25, 1
  store i32 %26, i32* %4, align 4
  br label %13

27:                                               ; preds = %22, %13
  %28 = load i32, i32* %4, align 4
  %29 = load i32, i32* %3, align 4
  %30 = icmp eq i32 %28, %29
  br i1 %30, label %31, label %38

31:                                               ; preds = %27
  %32 = load i32, i32* %6, align 4
  %33 = add nsw i32 %32, 1
  store i32 %33, i32* %6, align 4
  %34 = load i32, i32* %3, align 4
  %35 = load i32, i32* %6, align 4
  %36 = sext i32 %35 to i64
  %37 = getelementptr inbounds [10000 x i32], [10000 x i32]* %5, i64 0, i64 %36
  store i32 %34, i32* %37, align 4
  br label %38

38:                                               ; preds = %31, %27
  br label %39

39:                                               ; preds = %38
  %40 = load i32, i32* %3, align 4
  %41 = add nsw i32 %40, 1
  store i32 %41, i32* %3, align 4
  br label %8

42:                                               ; preds = %8
  store i32 1, i32* %3, align 4
  br label %43

43:                                               ; preds = %80, %42
  %44 = load i32, i32* %3, align 4
  %45 = load i32, i32* %6, align 4
  %46 = icmp sle i32 %44, %45
  br i1 %46, label %47, label %83

47:                                               ; preds = %43
  %48 = load i32, i32* %3, align 4
  store i32 %48, i32* %4, align 4
  br label %49

49:                                               ; preds = %76, %47
  %50 = load i32, i32* %4, align 4
  %51 = load i32, i32* %6, align 4
  %52 = icmp sle i32 %50, %51
  br i1 %52, label %53, label %79

53:                                               ; preds = %49
  %54 = load i32, i32* %3, align 4
  %55 = sext i32 %54 to i64
  %56 = getelementptr inbounds [10000 x i32], [10000 x i32]* %5, i64 0, i64 %55
  %57 = load i32, i32* %56, align 4
  %58 = load i32, i32* %4, align 4
  %59 = sext i32 %58 to i64
  %60 = getelementptr inbounds [10000 x i32], [10000 x i32]* %5, i64 0, i64 %59
  %61 = load i32, i32* %60, align 4
  %62 = add nsw i32 %57, %61
  %63 = load i32, i32* %2, align 4
  %64 = icmp eq i32 %62, %63
  br i1 %64, label %65, label %75

65:                                               ; preds = %53
  %66 = load i32, i32* %3, align 4
  %67 = sext i32 %66 to i64
  %68 = getelementptr inbounds [10000 x i32], [10000 x i32]* %5, i64 0, i64 %67
  %69 = load i32, i32* %68, align 4
  %70 = load i32, i32* %4, align 4
  %71 = sext i32 %70 to i64
  %72 = getelementptr inbounds [10000 x i32], [10000 x i32]* %5, i64 0, i64 %71
  %73 = load i32, i32* %72, align 4
  %74 = call i32 (i8*, ...) @printf(i8* getelementptr inbounds ([7 x i8], [7 x i8]* @.str.1, i64 0, i64 0), i32 %69, i32 %73)
  br label %79

75:                                               ; preds = %53
  br label %76

76:                                               ; preds = %75
  %77 = load i32, i32* %4, align 4
  %78 = add nsw i32 %77, 1
  store i32 %78, i32* %4, align 4
  br label %49

79:                                               ; preds = %65, %49
  br label %80

80:                                               ; preds = %79
  %81 = load i32, i32* %3, align 4
  %82 = add nsw i32 %81, 1
  store i32 %82, i32* %3, align 4
  br label %43

83:                                               ; preds = %43
  ret i32 0
}

declare dso_local i32 @__isoc99_scanf(i8*, ...) #1

declare dso_local i32 @printf(i8*, ...) #1


!llvm.module.flags = !{!0}
!llvm.ident = !{!1}

!0 = !{i32 1, !"wchar_size", i32 4}
!1 = !{!"clang version 10.0.0-4ubuntu1 "}
